target datalayout = "e-m:e-p270:32:32-p271:32:32-p272:64:64-i64:64-i128:128-f80:128-n8:16:32:64-S128"
target triple = "x86_64-pc-linux-gnu"

%"class.rocksdb::Slice" = type { ptr, i64 }
%"class.rocksdb::Status" = type { i8, i8, i8, i8, i8, i8, %"class.std::unique_ptr" }
%"class.std::unique_ptr" = type { %"struct.std::__uniq_ptr_data" }
%"struct.std::__uniq_ptr_data" = type { %"class.std::__uniq_ptr_impl" }
%"class.std::__uniq_ptr_impl" = type { %"class.std::tuple" }
%"class.std::tuple" = type { %"struct.std::_Tuple_impl" }
%"struct.std::_Tuple_impl" = type { %"struct.std::_Head_base.4" }
%"struct.std::_Head_base.4" = type { ptr }
%"class.rocksdb::PlainTableFileReader" = type { ptr, %"struct.std::array.54", i32, %"class.rocksdb::Status" }
%"struct.std::array.54" = type { [2 x %"class.std::unique_ptr.55"] }
%"class.std::unique_ptr.55" = type { %"struct.std::__uniq_ptr_data.56" }
%"struct.std::__uniq_ptr_data.56" = type { %"class.std::__uniq_ptr_impl.57" }
%"class.std::__uniq_ptr_impl.57" = type { %"class.std::tuple.58" }
%"class.std::tuple.58" = type { %"struct.std::_Tuple_impl.59" }
%"struct.std::_Tuple_impl.59" = type { %"struct.std::_Head_base.62" }
%"struct.std::_Head_base.62" = type { ptr }
%"struct.rocksdb::PlainTableReaderFileInfo" = type { i8, %"class.rocksdb::Slice", i32, %"class.std::unique_ptr.63" }
%"class.std::unique_ptr.63" = type { %"struct.std::__uniq_ptr_data.64" }
%"struct.std::__uniq_ptr_data.64" = type { %"class.std::__uniq_ptr_impl.65" }
%"class.std::__uniq_ptr_impl.65" = type { %"class.std::tuple.66" }
%"class.std::tuple.66" = type { %"struct.std::_Tuple_impl.67" }
%"struct.std::_Tuple_impl.67" = type { %"struct.std::_Head_base.70" }
%"struct.std::_Head_base.70" = type { ptr }

@.str = private unnamed_addr constant [1 x i8] zeroinitializer, align 1

; Function Attrs: mustprogress nounwind uwtable
define linkonce_odr void @_ZN7rocksdb5SliceC2EPKcm(ptr noundef nonnull align 8 dereferenceable(16) %0, ptr noundef %1, i64 noundef %2) unnamed_addr #3 comdat align 2 {
  %4 = alloca ptr, align 8
  %5 = alloca ptr, align 8
  %6 = alloca i64, align 8
  store ptr %0, ptr %4, align 8, !tbaa !13
  store ptr %1, ptr %5, align 8, !tbaa !10
  store i64 %2, ptr %6, align 8, !tbaa !4
  %7 = load ptr, ptr %4, align 8
  %8 = getelementptr inbounds nuw %"class.rocksdb::Slice", ptr %7, i32 0, i32 0
  %9 = load ptr, ptr %5, align 8, !tbaa !10
  store ptr %9, ptr %8, align 8, !tbaa !15
  %10 = getelementptr inbounds nuw %"class.rocksdb::Slice", ptr %7, i32 0, i32 1
  %11 = load i64, ptr %6, align 8, !tbaa !4
  store i64 %11, ptr %10, align 8, !tbaa !17
  ret void
}

; Function Attrs: inlinehint mustprogress uwtable
define linkonce_odr noundef ptr @_ZN7rocksdb14GetVarint32PtrEPKcS1_Pj(ptr noundef %0, ptr noundef %1, ptr noundef %2) #6 comdat {
  %4 = alloca ptr, align 8
  %5 = alloca ptr, align 8
  %6 = alloca ptr, align 8
  %7 = alloca ptr, align 8
  %8 = alloca i32, align 4
  %9 = alloca i32, align 4
  store ptr %0, ptr %5, align 8, !tbaa !10
  store ptr %1, ptr %6, align 8, !tbaa !10
  store ptr %2, ptr %7, align 8, !tbaa !139
  %10 = load ptr, ptr %5, align 8, !tbaa !10
  %11 = load ptr, ptr %6, align 8, !tbaa !10
  %12 = icmp ult ptr %10, %11
  br i1 %12, label %13, label %29

13:                                               ; preds = %3
  call void @llvm.lifetime.start.p0(i64 4, ptr %8) #4
  %14 = load ptr, ptr %5, align 8, !tbaa !10
  %15 = load i8, ptr %14, align 1, !tbaa !76
  %16 = zext i8 %15 to i32
  store i32 %16, ptr %8, align 4, !tbaa !59
  %17 = load i32, ptr %8, align 4, !tbaa !59
  %18 = and i32 %17, 128
  %19 = icmp eq i32 %18, 0
  br i1 %19, label %20, label %25

20:                                               ; preds = %13
  %21 = load i32, ptr %8, align 4, !tbaa !59
  %22 = load ptr, ptr %7, align 8, !tbaa !139
  store i32 %21, ptr %22, align 4, !tbaa !59
  %23 = load ptr, ptr %5, align 8, !tbaa !10
  %24 = getelementptr inbounds i8, ptr %23, i64 1
  store ptr %24, ptr %4, align 8
  store i32 1, ptr %9, align 4
  br label %26

25:                                               ; preds = %13
  store i32 0, ptr %9, align 4
  br label %26

26:                                               ; preds = %25, %20
  call void @llvm.lifetime.end.p0(i64 4, ptr %8) #4
  %27 = load i32, ptr %9, align 4
  switch i32 %27, label %36 [
    i32 0, label %28
    i32 1, label %34
  ]

28:                                               ; preds = %26
  br label %29

29:                                               ; preds = %28, %3
  %30 = load ptr, ptr %5, align 8, !tbaa !10
  %31 = load ptr, ptr %6, align 8, !tbaa !10
  %32 = load ptr, ptr %7, align 8, !tbaa !139
  %33 = call noundef ptr @_ZN7rocksdb22GetVarint32PtrFallbackEPKcS1_Pj(ptr noundef %30, ptr noundef %31, ptr noundef %32)
  store ptr %33, ptr %4, align 8
  br label %34

34:                                               ; preds = %29, %26
  %35 = load ptr, ptr %4, align 8
  ret ptr %35

36:                                               ; preds = %26
  unreachable
}

; Function Attrs: mustprogress nounwind uwtable
define linkonce_odr noundef i64 @_ZNK7rocksdb5Slice4sizeEv(ptr noundef nonnull align 8 dereferenceable(16) %0) #3 comdat align 2 {
  %2 = alloca ptr, align 8
  store ptr %0, ptr %2, align 8, !tbaa !13
  %3 = load ptr, ptr %2, align 8
  %4 = getelementptr inbounds nuw %"class.rocksdb::Slice", ptr %3, i32 0, i32 1
  %5 = load i64, ptr %4, align 8, !tbaa !17
  ret i64 %5
}

; Function Attrs: mustprogress nounwind uwtable
define linkonce_odr noundef ptr @_ZNK7rocksdb5Slice4dataEv(ptr noundef nonnull align 8 dereferenceable(16) %0) #3 comdat align 2 {
  %2 = alloca ptr, align 8
  store ptr %0, ptr %2, align 8, !tbaa !13
  %3 = load ptr, ptr %2, align 8
  %4 = getelementptr inbounds nuw %"class.rocksdb::Slice", ptr %3, i32 0, i32 0
  %5 = load ptr, ptr %4, align 8, !tbaa !15
  ret ptr %5
}

; Function Attrs: mustprogress uwtable
define linkonce_odr noundef zeroext i1 @_ZN7rocksdb20PlainTableFileReader4ReadEjjPNS_5SliceE(ptr noundef nonnull align 8 dereferenceable(48) %0, i32 noundef %1, i32 noundef %2, ptr noundef %3) #5 comdat align 2 {
  %5 = alloca i1, align 1
  %6 = alloca ptr, align 8
  %7 = alloca i32, align 4
  %8 = alloca i32, align 4
  %9 = alloca ptr, align 8
  %10 = alloca %"class.rocksdb::Slice", align 8
  store ptr %0, ptr %6, align 8, !tbaa !93
  store i32 %1, ptr %7, align 4, !tbaa !59
  store i32 %2, ptr %8, align 4, !tbaa !59
  store ptr %3, ptr %9, align 8, !tbaa !13
  %11 = load ptr, ptr %6, align 8
  %12 = getelementptr inbounds nuw %"class.rocksdb::PlainTableFileReader", ptr %11, i32 0, i32 0
  %13 = load ptr, ptr %12, align 8, !tbaa !124
  %14 = getelementptr inbounds nuw %"struct.rocksdb::PlainTableReaderFileInfo", ptr %13, i32 0, i32 0
  %15 = load i8, ptr %14, align 8, !tbaa !149, !range !80, !noundef !81
  %16 = trunc i8 %15 to i1
  br i1 %16, label %17, label %28

17:                                               ; preds = %4
  call void @llvm.lifetime.start.p0(i64 16, ptr %10) #4
  %18 = getelementptr inbounds nuw %"class.rocksdb::PlainTableFileReader", ptr %11, i32 0, i32 0
  %19 = load ptr, ptr %18, align 8, !tbaa !124
  %20 = getelementptr inbounds nuw %"struct.rocksdb::PlainTableReaderFileInfo", ptr %19, i32 0, i32 1
  %21 = call noundef ptr @_ZNK7rocksdb5Slice4dataEv(ptr noundef nonnull align 8 dereferenceable(16) %20)
  %22 = load i32, ptr %7, align 4, !tbaa !59
  %23 = zext i32 %22 to i64
  %24 = getelementptr inbounds nuw i8, ptr %21, i64 %23
  %25 = load i32, ptr %8, align 4, !tbaa !59
  %26 = zext i32 %25 to i64
  call void @_ZN7rocksdb5SliceC2EPKcm(ptr noundef nonnull align 8 dereferenceable(16) %10, ptr noundef %24, i64 noundef %26)
  %27 = load ptr, ptr %9, align 8, !tbaa !13
  call void @llvm.memcpy.p0.p0.i64(ptr align 8 %27, ptr align 8 %10, i64 16, i1 false), !tbaa.struct !58
  call void @llvm.lifetime.end.p0(i64 16, ptr %10) #4
  store i1 true, ptr %5, align 1
  br label %33

28:                                               ; preds = %4
  %29 = load i32, ptr %7, align 4, !tbaa !59
  %30 = load i32, ptr %8, align 4, !tbaa !59
  %31 = load ptr, ptr %9, align 8, !tbaa !13
  %32 = call noundef zeroext i1 @_ZN7rocksdb20PlainTableFileReader11ReadNonMmapEjjPNS_5SliceE(ptr noundef nonnull align 8 dereferenceable(48) %11, i32 noundef %29, i32 noundef %30, ptr noundef %31)
  store i1 %32, ptr %5, align 1
  br label %33

33:                                               ; preds = %28, %17
  %34 = load i1, ptr %5, align 1
  ret i1 %34
}

; Function Attrs: mustprogress nounwind uwtable
define linkonce_odr void @_ZN7rocksdb5SliceC2Ev(ptr noundef nonnull align 8 dereferenceable(16) %0) unnamed_addr #3 comdat align 2 {
  %2 = alloca ptr, align 8
  store ptr %0, ptr %2, align 8, !tbaa !13
  %3 = load ptr, ptr %2, align 8
  %4 = getelementptr inbounds nuw %"class.rocksdb::Slice", ptr %3, i32 0, i32 0
  store ptr @.str, ptr %4, align 8, !tbaa !15
  %5 = getelementptr inbounds nuw %"class.rocksdb::Slice", ptr %3, i32 0, i32 1
  store i64 0, ptr %5, align 8, !tbaa !17
  ret void
}

; Function Attrs: inlinehint mustprogress nounwind uwtable
define linkonce_odr noundef nonnull align 4 dereferenceable(4) ptr @_ZSt3minIjERKT_S2_S2_(ptr noundef nonnull align 4 dereferenceable(4) %0, ptr noundef nonnull align 4 dereferenceable(4) %1) #1 comdat {
  %3 = alloca ptr, align 8
  %4 = alloca ptr, align 8
  %5 = alloca ptr, align 8
  store ptr %0, ptr %4, align 8, !tbaa !139
  store ptr %1, ptr %5, align 8, !tbaa !139
  %6 = load ptr, ptr %5, align 8, !tbaa !139
  %7 = load i32, ptr %6, align 4, !tbaa !59
  %8 = load ptr, ptr %4, align 8, !tbaa !139
  %9 = load i32, ptr %8, align 4, !tbaa !59
  %10 = icmp ult i32 %7, %9
  br i1 %10, label %11, label %13

11:                                               ; preds = %2
  %12 = load ptr, ptr %5, align 8, !tbaa !139
  store ptr %12, ptr %3, align 8
  br label %15

13:                                               ; preds = %2
  %14 = load ptr, ptr %4, align 8, !tbaa !139
  store ptr %14, ptr %3, align 8
  br label %15

15:                                               ; preds = %13, %11
  %16 = load ptr, ptr %3, align 8
  ret ptr %16
}

; Function Attrs: mustprogress uwtable
define noundef zeroext i1 @_ZN7rocksdb20PlainTableFileReader19ReadVarint32NonMmapEjPjS1_(ptr noundef nonnull align 8 dereferenceable(48) %0, i32 noundef %1, ptr noundef %2, ptr noundef %3) #5 align 2 {
  %5 = alloca i1, align 1
  %6 = alloca ptr, align 8
  %7 = alloca i32, align 4
  %8 = alloca ptr, align 8
  %9 = alloca ptr, align 8
  %10 = alloca ptr, align 8
  %11 = alloca ptr, align 8
  %12 = alloca i32, align 4
  %13 = alloca i32, align 4
  %14 = alloca i32, align 4
  %15 = alloca %"class.rocksdb::Slice", align 8
  %16 = alloca i32, align 4
  %17 = alloca ptr, align 8
  store ptr %0, ptr %6, align 8, !tbaa !93
  store i32 %1, ptr %7, align 4, !tbaa !59
  store ptr %2, ptr %8, align 8, !tbaa !139
  store ptr %3, ptr %9, align 8, !tbaa !139
  %18 = load ptr, ptr %6, align 8
  call void @llvm.lifetime.start.p0(i64 8, ptr %10) #4
  call void @llvm.lifetime.start.p0(i64 8, ptr %11) #4
  call void @llvm.lifetime.start.p0(i64 4, ptr %12) #4
  store i32 6, ptr %12, align 4, !tbaa !59
  call void @llvm.lifetime.start.p0(i64 4, ptr %13) #4
  call void @llvm.lifetime.start.p0(i64 4, ptr %14) #4
  %19 = getelementptr inbounds nuw %"class.rocksdb::PlainTableFileReader", ptr %18, i32 0, i32 0
  %20 = load ptr, ptr %19, align 8, !tbaa !124
  %21 = getelementptr inbounds nuw %"struct.rocksdb::PlainTableReaderFileInfo", ptr %20, i32 0, i32 2
  %22 = load i32, ptr %21, align 8, !tbaa !125
  %23 = load i32, ptr %7, align 4, !tbaa !59
  %24 = sub i32 %22, %23
  store i32 %24, ptr %14, align 4, !tbaa !59
  %25 = call noundef nonnull align 4 dereferenceable(4) ptr @_ZSt3minIjERKT_S2_S2_(ptr noundef nonnull align 4 dereferenceable(4) %14, ptr noundef nonnull align 4 dereferenceable(4) %12)
  %26 = load i32, ptr %25, align 4, !tbaa !59
  call void @llvm.lifetime.end.p0(i64 4, ptr %14) #4
  store i32 %26, ptr %13, align 4, !tbaa !59
  call void @llvm.lifetime.start.p0(i64 16, ptr %15) #4
  call void @_ZN7rocksdb5SliceC2Ev(ptr noundef nonnull align 8 dereferenceable(16) %15)
  %27 = load i32, ptr %7, align 4, !tbaa !59
  %28 = load i32, ptr %13, align 4, !tbaa !59
  %29 = call noundef zeroext i1 @_ZN7rocksdb20PlainTableFileReader4ReadEjjPNS_5SliceE(ptr noundef nonnull align 8 dereferenceable(48) %18, i32 noundef %27, i32 noundef %28, ptr noundef %15)
  br i1 %29, label %31, label %30

30:                                               ; preds = %4
  store i1 false, ptr %5, align 1
  store i32 1, ptr %16, align 4
  br label %53

31:                                               ; preds = %4
  %32 = call noundef ptr @_ZNK7rocksdb5Slice4dataEv(ptr noundef nonnull align 8 dereferenceable(16) %15)
  store ptr %32, ptr %10, align 8, !tbaa !10
  %33 = call noundef ptr @_ZNK7rocksdb5Slice4dataEv(ptr noundef nonnull align 8 dereferenceable(16) %15)
  %34 = call noundef i64 @_ZNK7rocksdb5Slice4sizeEv(ptr noundef nonnull align 8 dereferenceable(16) %15)
  %35 = getelementptr inbounds nuw i8, ptr %33, i64 %34
  store ptr %35, ptr %11, align 8, !tbaa !10
  call void @llvm.lifetime.start.p0(i64 8, ptr %17) #4
  %36 = load ptr, ptr %10, align 8, !tbaa !10
  %37 = load ptr, ptr %11, align 8, !tbaa !10
  %38 = load ptr, ptr %8, align 8, !tbaa !139
  %39 = call noundef ptr @_ZN7rocksdb14GetVarint32PtrEPKcS1_Pj(ptr noundef %36, ptr noundef %37, ptr noundef %38)
  store ptr %39, ptr %17, align 8, !tbaa !10
  %40 = load ptr, ptr %17, align 8, !tbaa !10
  %41 = icmp ne ptr %40, null
  br i1 %41, label %42, label %49

42:                                               ; preds = %31
  %43 = load ptr, ptr %17, align 8, !tbaa !10
  %44 = load ptr, ptr %10, align 8, !tbaa !10
  %45 = ptrtoint ptr %43 to i64
  %46 = ptrtoint ptr %44 to i64
  %47 = sub i64 %45, %46
  %48 = trunc i64 %47 to i32
  br label %50

49:                                               ; preds = %31
  br label %50

50:                                               ; preds = %49, %42
  %51 = phi i32 [ %48, %42 ], [ 0, %49 ]
  %52 = load ptr, ptr %9, align 8, !tbaa !139
  store i32 %51, ptr %52, align 4, !tbaa !59
  store i1 true, ptr %5, align 1
  store i32 1, ptr %16, align 4
  call void @llvm.lifetime.end.p0(i64 8, ptr %17) #4
  br label %53

53:                                               ; preds = %50, %30
  call void @llvm.lifetime.end.p0(i64 16, ptr %15) #4
  call void @llvm.lifetime.end.p0(i64 4, ptr %13) #4
  call void @llvm.lifetime.end.p0(i64 4, ptr %12) #4
  call void @llvm.lifetime.end.p0(i64 8, ptr %11) #4
  call void @llvm.lifetime.end.p0(i64 8, ptr %10) #4
  %54 = load i1, ptr %5, align 1
  ret i1 %54
}