; Function Attrs: mustprogress uwtable
define noundef zeroext i1 @_ZN7rocksdb20PlainTableFileReader19ReadVarint32NonMmapEjPjS1_(ptr noundef nonnull align 8 captures(none) dereferenceable(48) %0, i32 noundef %1, ptr noundef %2, ptr noundef writeonly captures(none) %3) local_unnamed_addr #4 align 2 {
  %5 = alloca %"class.rocksdb::Slice", align 8
  %6 = load ptr, ptr %0, align 8, !tbaa !122
  %7 = getelementptr inbounds nuw i8, ptr %6, i64 24
  %8 = load i32, ptr %7, align 8, !tbaa !123
  %9 = sub i32 %8, %1
  %.sroa.speculated = tail call i32 @llvm.umin.i32(i32 %9, i32 6)
  call void @llvm.lifetime.start.p0(i64 16, ptr nonnull %5) #20
  store ptr @.str, ptr %5, align 8, !tbaa !18
  %10 = getelementptr inbounds nuw i8, ptr %5, i64 8
  store i64 0, ptr %10, align 8, !tbaa !20
  %11 = load i8, ptr %6, align 8, !tbaa !142, !range !78, !noundef !79
  %12 = trunc nuw i8 %11 to i1
  br i1 %12, label %_ZN7rocksdb20PlainTableFileReader4ReadEjjPNS_5SliceE.exit.thread, label %_ZN7rocksdb20PlainTableFileReader4ReadEjjPNS_5SliceE.exit

_ZN7rocksdb20PlainTableFileReader4ReadEjjPNS_5SliceE.exit.thread: ; preds = %4
  %13 = getelementptr inbounds nuw i8, ptr %6, i64 8
  %14 = load ptr, ptr %13, align 8, !tbaa !18
  %15 = zext i32 %1 to i64
  %16 = getelementptr inbounds nuw i8, ptr %14, i64 %15
  %17 = zext nneg i32 %.sroa.speculated to i64
  br label %19

_ZN7rocksdb20PlainTableFileReader4ReadEjjPNS_5SliceE.exit: ; preds = %4
  %18 = call noundef zeroext i1 @_ZN7rocksdb20PlainTableFileReader11ReadNonMmapEjjPNS_5SliceE(ptr noundef nonnull align 8 dereferenceable(48) %0, i32 noundef %1, i32 noundef %.sroa.speculated, ptr noundef nonnull %5)
  br i1 %18, label %_ZN7rocksdb20PlainTableFileReader4ReadEjjPNS_5SliceE.exit._crit_edge, label %35

_ZN7rocksdb20PlainTableFileReader4ReadEjjPNS_5SliceE.exit._crit_edge: ; preds = %_ZN7rocksdb20PlainTableFileReader4ReadEjjPNS_5SliceE.exit
  %.pre = load ptr, ptr %5, align 8, !tbaa !18
  %.pre18 = load i64, ptr %10, align 8, !tbaa !20
  br label %19

19:                                               ; preds = %_ZN7rocksdb20PlainTableFileReader4ReadEjjPNS_5SliceE.exit._crit_edge, %_ZN7rocksdb20PlainTableFileReader4ReadEjjPNS_5SliceE.exit.thread
  %20 = phi i64 [ %.pre18, %_ZN7rocksdb20PlainTableFileReader4ReadEjjPNS_5SliceE.exit._crit_edge ], [ %17, %_ZN7rocksdb20PlainTableFileReader4ReadEjjPNS_5SliceE.exit.thread ]
  %21 = phi ptr [ %.pre, %_ZN7rocksdb20PlainTableFileReader4ReadEjjPNS_5SliceE.exit._crit_edge ], [ %16, %_ZN7rocksdb20PlainTableFileReader4ReadEjjPNS_5SliceE.exit.thread ]
  %22 = getelementptr inbounds nuw i8, ptr %21, i64 %20
  %.not17 = icmp eq i64 %20, 0
  br i1 %.not17, label %.thread.i, label %23

23:                                               ; preds = %19
  %24 = load i8, ptr %21, align 1, !tbaa !17
  %25 = icmp sgt i8 %24, -1
  br i1 %25, label %26, label %.thread.i

26:                                               ; preds = %23
  %27 = zext nneg i8 %24 to i32
  store i32 %27, ptr %2, align 4, !tbaa !143
  %28 = getelementptr inbounds nuw i8, ptr %21, i64 1
  br label %_ZN7rocksdb14GetVarint32PtrEPKcS1_Pj.exit

.thread.i:                                        ; preds = %23, %19
  %29 = tail call noundef ptr @_ZN7rocksdb22GetVarint32PtrFallbackEPKcS1_Pj(ptr noundef %21, ptr noundef %22, ptr noundef %2)
  br label %_ZN7rocksdb14GetVarint32PtrEPKcS1_Pj.exit

_ZN7rocksdb14GetVarint32PtrEPKcS1_Pj.exit:        ; preds = %26, %.thread.i
  %.1.i = phi ptr [ %28, %26 ], [ %29, %.thread.i ]
  %.not = icmp eq ptr %.1.i, null
  %30 = ptrtoint ptr %.1.i to i64
  %31 = ptrtoint ptr %21 to i64
  %32 = sub i64 %30, %31
  %33 = trunc i64 %32 to i32
  %34 = select i1 %.not, i32 0, i32 %33
  store i32 %34, ptr %3, align 4, !tbaa !143
  br label %35

35:                                               ; preds = %_ZN7rocksdb20PlainTableFileReader4ReadEjjPNS_5SliceE.exit, %_ZN7rocksdb14GetVarint32PtrEPKcS1_Pj.exit
  %.0.i15 = phi i1 [ false, %_ZN7rocksdb20PlainTableFileReader4ReadEjjPNS_5SliceE.exit ], [ true, %_ZN7rocksdb14GetVarint32PtrEPKcS1_Pj.exit ]
  call void @llvm.lifetime.end.p0(i64 16, ptr nonnull %5) #20
  ret i1 %.0.i15
}